target datalayout = "e-m:e-p270:32:32-p271:32:32-p272:64:64-i64:64-i128:128-f80:128-n8:16:32:64-S128"
target triple = "x86_64-pc-linux-gnu"

%class.CodeBlob.base = type <{ ptr, ptr, ptr, i32, i32, i32, i32, i32, i32, i16, i16, i8, i8 }>
%class.JVMCINMethodData = type { i8, i32, i32, ptr }
%class.nmethod = type <{ %class.CodeBlob.base, [2 x i8], i64, i64, ptr, %union.anon.4, ptr, ptr, ptr, ptr, ptr, ptr, ptr, i16, i16, i32, i32, i32, i32, i32, i32, i32, i16, i16, i16, i16, i16, i16, i32, i32, i32, i32, i32, i8, i8, i8, i8, i8, i8, [2 x i8] }>
%union.anon.4 = type { ptr }

@.str = private unnamed_addr constant [41 x i8] c"src/hotspot/share/jvmci/jvmciRuntime.cpp\00", align 1
@g_assert_poison = external global ptr, align 8
@.str.24 = private unnamed_addr constant [50 x i8] c"guarantee(index >= 0 && index <= max_jint) failed\00", align 1
@.str.25 = private unnamed_addr constant [69 x i8] c"Encoded JVMCI speculation index is not a positive Java int: 0x%016lx\00", align 1
@.str.26 = private unnamed_addr constant [84 x i8] c"0x%016lx[index: %ld, length: %d out of bounds wrt encoded speculations of length %u\00", align 1

; Function Attrs: mustprogress nounwind uwtable
define linkonce_odr hidden noundef ptr @_ZNK7nmethod18immutable_data_endEv(ptr noundef nonnull align 8 dereferenceable(214) %0) #1 comdat align 2 {
  %2 = alloca ptr, align 8
  store ptr %0, ptr %2, align 8
  %3 = load ptr, ptr %2, align 8
  %4 = getelementptr inbounds %class.nmethod, ptr %3, i32 0, i32 6
  %5 = load ptr, ptr %4, align 8
  %6 = getelementptr inbounds %class.nmethod, ptr %3, i32 0, i32 16
  %7 = load i32, ptr %6, align 8
  %8 = sext i32 %7 to i64
  %9 = getelementptr inbounds i8, ptr %5, i64 %8
  ret ptr %9
}

; Function Attrs: mustprogress nounwind uwtable
define linkonce_odr hidden noundef ptr @_ZNK7nmethod16speculations_endEv(ptr noundef nonnull align 8 dereferenceable(214) %0) #1 comdat align 2 {
  %2 = alloca ptr, align 8
  store ptr %0, ptr %2, align 8
  %3 = load ptr, ptr %2, align 8
  %4 = call noundef ptr @_ZNK7nmethod18immutable_data_endEv(ptr noundef nonnull align 8 dereferenceable(214) %3)
  ret ptr %4
}

; Function Attrs: mustprogress nounwind uwtable
define linkonce_odr hidden noundef ptr @_ZNK7nmethod18speculations_beginEv(ptr noundef nonnull align 8 dereferenceable(214) %0) #1 comdat align 2 {
  %2 = alloca ptr, align 8
  store ptr %0, ptr %2, align 8
  %3 = load ptr, ptr %2, align 8
  %4 = getelementptr inbounds %class.nmethod, ptr %3, i32 0, i32 6
  %5 = load ptr, ptr %4, align 8
  %6 = getelementptr inbounds %class.nmethod, ptr %3, i32 0, i32 30
  %7 = load i32, ptr %6, align 4
  %8 = sext i32 %7 to i64
  %9 = getelementptr inbounds i8, ptr %5, i64 %8
  ret ptr %9
}

; Function Attrs: mustprogress nounwind uwtable
define linkonce_odr hidden noundef i32 @_ZNK7nmethod17speculations_sizeEv(ptr noundef nonnull align 8 dereferenceable(214) %0) #1 comdat align 2 {
  %2 = alloca ptr, align 8
  store ptr %0, ptr %2, align 8
  %3 = load ptr, ptr %2, align 8
  %4 = call noundef ptr @_ZNK7nmethod16speculations_endEv(ptr noundef nonnull align 8 dereferenceable(214) %3)
  %5 = call noundef ptr @_ZNK7nmethod18speculations_beginEv(ptr noundef nonnull align 8 dereferenceable(214) %3)
  %6 = ptrtoint ptr %4 to i64
  %7 = ptrtoint ptr %5 to i64
  %8 = sub i64 %6, %7
  %9 = trunc i64 %8 to i32
  ret i32 %9
}

; Function Attrs: mustprogress nounwind uwtable
define hidden void @_ZN16JVMCINMethodData22add_failed_speculationEP7nmethodl(ptr noundef nonnull align 8 dereferenceable(24) %0, ptr noundef %1, i64 noundef %2) #1 align 2 {
  %4 = alloca ptr, align 8
  %5 = alloca ptr, align 8
  %6 = alloca i64, align 8
  %7 = alloca i64, align 8
  %8 = alloca i32, align 4
  %9 = alloca ptr, align 8
  store ptr %0, ptr %4, align 8
  store ptr %1, ptr %5, align 8
  store i64 %2, ptr %6, align 8
  %10 = load ptr, ptr %4, align 8
  %11 = load i64, ptr %6, align 8
  %12 = ashr i64 %11, 5
  store i64 %12, ptr %7, align 8
  br label %13

13:                                               ; preds = %3
  %14 = load i64, ptr %7, align 8
  %15 = icmp sge i64 %14, 0
  br i1 %15, label %16, label %19

16:                                               ; preds = %13
  %17 = load i64, ptr %7, align 8
  %18 = icmp sle i64 %17, 2147483647
  br i1 %18, label %22, label %19

19:                                               ; preds = %16, %13
  %20 = load ptr, ptr @g_assert_poison, align 8
  store i8 88, ptr %20, align 1
  %21 = load i64, ptr %7, align 8
  call void (ptr, i32, ptr, ptr, ...) @_Z15report_vm_errorPKciS0_S0_z(ptr noundef @.str, i32 noundef 779, ptr noundef @.str.24, ptr noundef @.str.25, i64 noundef %21) #13
  unreachable

22:                                               ; preds = %16
  br label %23

23:                                               ; preds = %22
  %24 = load i64, ptr %6, align 8
  %25 = and i64 %24, 31
  %26 = trunc i64 %25 to i32
  store i32 %26, ptr %8, align 4
  %27 = load i64, ptr %7, align 8
  %28 = load i32, ptr %8, align 4
  %29 = sext i32 %28 to i64
  %30 = add nsw i64 %27, %29
  %31 = load ptr, ptr %5, align 8
  %32 = call noundef i32 @_ZNK7nmethod17speculations_sizeEv(ptr noundef nonnull align 8 dereferenceable(214) %31)
  %33 = zext i32 %32 to i64
  %34 = icmp sgt i64 %30, %33
  br i1 %34, label %35, label %44

35:                                               ; preds = %23
  br label %36

36:                                               ; preds = %35
  %37 = load ptr, ptr @g_assert_poison, align 8
  store i8 88, ptr %37, align 1
  %38 = load i64, ptr %6, align 8
  %39 = load i64, ptr %7, align 8
  %40 = load i32, ptr %8, align 4
  %41 = load ptr, ptr %5, align 8
  %42 = call noundef i32 @_ZNK7nmethod17speculations_sizeEv(ptr noundef nonnull align 8 dereferenceable(214) %41)
  call void (i32, ptr, i32, ptr, ...) @_Z12report_fatal11VMErrorTypePKciS1_z(i32 noundef -536870912, ptr noundef @.str, i32 noundef 782, ptr noundef @.str.26, i64 noundef %38, i64 noundef %39, i32 noundef %40, i32 noundef %42) #13
  unreachable

43:                                               ; No predecessors!
  br label %44

44:                                               ; preds = %43, %23
  %45 = load ptr, ptr %5, align 8
  %46 = call noundef ptr @_ZNK7nmethod18speculations_beginEv(ptr noundef nonnull align 8 dereferenceable(214) %45)
  %47 = load i64, ptr %7, align 8
  %48 = getelementptr inbounds i8, ptr %46, i64 %47
  store ptr %48, ptr %9, align 8
  %49 = load ptr, ptr %5, align 8
  %50 = getelementptr inbounds %class.JVMCINMethodData, ptr %10, i32 0, i32 3
  %51 = load ptr, ptr %50, align 8
  %52 = load ptr, ptr %9, align 8
  %53 = load i32, ptr %8, align 4
  %54 = call noundef zeroext i1 @_ZN17FailedSpeculation22add_failed_speculationEP7nmethodPPS_Phi(ptr noundef %49, ptr noundef %51, ptr noundef %52, i32 noundef %53)
  ret void
}